target datalayout = "e-m:e-p270:32:32-p271:32:32-p272:64:64-i64:64-i128:128-f80:128-n8:16:32:64-S128"
target triple = "x86_64-pc-linux-gnu"

%struct.AVFormatContext = type { ptr, ptr, ptr, ptr, ptr, i32, i32, ptr, i32, ptr, i32, ptr, ptr, i64, i64, i64, i32, i32, i32, i64, i64, ptr, i32, i32, ptr, i32, i32, i32, i32, ptr, i64, i32, i32, %struct.AVIOInterruptCB, i32, i32, i32, i32, i64, i32, i32, i32, i32, i32, i32, i32, i32, i32, i32, i32, i32, i64, i32, i32, i32, i32, i32, ptr, ptr, ptr, ptr, i32, ptr, ptr, ptr, ptr, i32, ptr, ptr, i64, ptr, ptr, ptr, i64 }
%struct.AVIOInterruptCB = type { ptr, ptr }
%struct.AVRational = type { i32, i32 }
%struct.MXFContext = type { ptr, i64, i32, %struct.AVRational, i32, ptr, i32, i64, i8, i32, ptr, i32, i32, i64, %struct.AVTimecode, ptr, i32, i32, i32, i64, i32, [16 x i8], i32, i32, i32, %struct.AVRational, i32, i32, i32, [127 x i8], %struct.MXFStreamContext }
%struct.AVTimecode = type { i32, i32, %struct.AVRational, i32 }
%struct.MXFStreamContext = type { i64, [16 x i8], i32, ptr, ptr, i32, i32, i32, i32, i32, i32, i32, i32, i32, %struct.AVRational, i32, i32, i32, i32, i32, i32, i32, i32, i32, i32, %struct.j2k_info_t }
%struct.j2k_info_t = type { i16, i16, i32, i32, i32, i32, i32, i32, i32, i32, [12 x i8] }

; Function Attrs: nounwind uwtable
define internal void @mxf_deinit(ptr noundef %0) #0 {
  %2 = alloca ptr, align 8
  %3 = alloca ptr, align 8
  store ptr %0, ptr %2, align 8, !tbaa !4
  call void @llvm.lifetime.start.p0(i64 8, ptr %3) #13
  %4 = load ptr, ptr %2, align 8, !tbaa !4
  %5 = getelementptr inbounds nuw %struct.AVFormatContext, ptr %4, i32 0, i32 3
  %6 = load ptr, ptr %5, align 8, !tbaa !11
  store ptr %6, ptr %3, align 8, !tbaa !28
  %7 = load ptr, ptr %3, align 8, !tbaa !28
  %8 = getelementptr inbounds nuw %struct.MXFContext, ptr %7, i32 0, i32 5
  call void @av_freep(ptr noundef %8)
  %9 = load ptr, ptr %3, align 8, !tbaa !28
  %10 = getelementptr inbounds nuw %struct.MXFContext, ptr %9, i32 0, i32 10
  call void @av_freep(ptr noundef %10)
  %11 = load ptr, ptr %3, align 8, !tbaa !28
  %12 = getelementptr inbounds nuw %struct.MXFContext, ptr %11, i32 0, i32 15
  call void @av_freep(ptr noundef %12)
  call void @llvm.lifetime.end.p0(i64 8, ptr %3) #13
  ret void
}