; Function Attrs: nounwind uwtable
define internal void @mxf_deinit(ptr noundef readonly captures(none) %0) #0 {
  %2 = getelementptr inbounds nuw i8, ptr %0, i64 24
  %3 = load ptr, ptr %2, align 8, !tbaa !4
  %4 = getelementptr inbounds nuw i8, ptr %3, i64 32
  tail call void @av_freep(ptr noundef nonnull %4) #14
  %5 = getelementptr inbounds nuw i8, ptr %3, i64 64
  tail call void @av_freep(ptr noundef nonnull %5) #14
  %6 = getelementptr inbounds nuw i8, ptr %3, i64 112
  tail call void @av_freep(ptr noundef nonnull %6) #14
  ret void
}